target datalayout = "e-m:e-p270:32:32-p271:32:32-p272:64:64-i64:64-i128:128-f80:128-n8:16:32:64-S128"
target triple = "x86_64-pc-linux-gnu"

%"class.casadi::Sparsity" = type { %"class.casadi::SharedObject" }
%"class.casadi::SharedObject" = type { %"class.casadi::GenericShared" }
%"class.casadi::GenericShared" = type { ptr }
%"class.casadi::HorzRepmat" = type { %"class.casadi::MXNode", i64 }
%"class.casadi::MXNode" = type { %"class.casadi::SharedObjectInternal", i64, %"class.std::vector", %"class.casadi::Sparsity" }
%"class.casadi::SharedObjectInternal" = type { %"class.casadi::GenericSharedInternal", i64 }
%"class.casadi::GenericSharedInternal" = type { ptr, ptr }
%"class.std::vector" = type { %"struct.std::_Vector_base" }
%"struct.std::_Vector_base" = type { %"struct.std::_Vector_base<casadi::MX, std::allocator<casadi::MX>>::_Vector_impl" }
%"struct.std::_Vector_base<casadi::MX, std::allocator<casadi::MX>>::_Vector_impl" = type { %"struct.std::_Vector_base<casadi::MX, std::allocator<casadi::MX>>::_Vector_impl_data" }
%"struct.std::_Vector_base<casadi::MX, std::allocator<casadi::MX>>::_Vector_impl_data" = type { ptr, ptr, ptr }
%"class.casadi::MX" = type { %"class.casadi::SharedObject" }

; Function Attrs: inlinehint mustprogress uwtable
define linkonce_odr hidden noundef nonnull align 8 dereferenceable(8) ptr @_ZN6casadi12SharedObjectaSERKS0_(ptr noundef nonnull align 8 dereferenceable(8) %0, ptr noundef nonnull align 8 dereferenceable(8) %1) #6 comdat align 2 {
  %3 = alloca ptr, align 8
  %4 = alloca ptr, align 8
  store ptr %0, ptr %3, align 8, !tbaa !152
  store ptr %1, ptr %4, align 8, !tbaa !152
  %5 = load ptr, ptr %3, align 8
  %6 = load ptr, ptr %4, align 8, !tbaa !152
  %7 = call noundef nonnull align 8 dereferenceable(8) ptr @_ZN6casadi13GenericSharedINS_12SharedObjectENS_20SharedObjectInternalEEaSERKS3_(ptr noundef nonnull align 8 dereferenceable(8) %5, ptr noundef nonnull align 8 dereferenceable(8) %6)
  ret ptr %5
}

; Function Attrs: inlinehint mustprogress uwtable
define linkonce_odr hidden noundef nonnull align 8 dereferenceable(8) ptr @_ZN6casadi2MXaSERKS0_(ptr noundef nonnull align 8 dereferenceable(8) %0, ptr noundef nonnull align 8 dereferenceable(8) %1) #6 comdat align 2 {
  %3 = alloca ptr, align 8
  %4 = alloca ptr, align 8
  store ptr %0, ptr %3, align 8, !tbaa !8
  store ptr %1, ptr %4, align 8, !tbaa !8
  %5 = load ptr, ptr %3, align 8
  %6 = load ptr, ptr %4, align 8, !tbaa !8
  %7 = call noundef nonnull align 8 dereferenceable(8) ptr @_ZN6casadi12SharedObjectaSERKS0_(ptr noundef nonnull align 8 dereferenceable(8) %5, ptr noundef nonnull align 8 dereferenceable(8) %6)
  ret ptr %5
}

; Function Attrs: mustprogress nounwind uwtable
define linkonce_odr hidden noundef nonnull align 8 dereferenceable(8) ptr @_ZNSt6vectorIN6casadi2MXESaIS1_EEixEm(ptr noundef nonnull align 8 dereferenceable(24) %0, i64 noundef %1) #7 comdat align 2 {
  %3 = alloca ptr, align 8
  %4 = alloca i64, align 8
  store ptr %0, ptr %3, align 8, !tbaa !57
  store i64 %1, ptr %4, align 8, !tbaa !42
  %5 = load ptr, ptr %3, align 8
  %6 = getelementptr inbounds nuw %"struct.std::_Vector_base", ptr %5, i32 0, i32 0
  %7 = getelementptr inbounds nuw %"struct.std::_Vector_base<casadi::MX, std::allocator<casadi::MX>>::_Vector_impl_data", ptr %6, i32 0, i32 0
  %8 = load ptr, ptr %7, align 8, !tbaa !59
  %9 = load i64, ptr %4, align 8, !tbaa !42
  %10 = getelementptr inbounds nuw %"class.casadi::MX", ptr %8, i64 %9
  ret ptr %10
}

; Function Attrs: mustprogress nounwind uwtable
define linkonce_odr hidden noundef nonnull align 8 dereferenceable(8) ptr @_ZNKSt6vectorIN6casadi2MXESaIS1_EEixEm(ptr noundef nonnull align 8 dereferenceable(24) %0, i64 noundef %1) #7 comdat align 2 {
  %3 = alloca ptr, align 8
  %4 = alloca i64, align 8
  store ptr %0, ptr %3, align 8, !tbaa !57
  store i64 %1, ptr %4, align 8, !tbaa !42
  %5 = load ptr, ptr %3, align 8
  %6 = getelementptr inbounds nuw %"struct.std::_Vector_base", ptr %5, i32 0, i32 0
  %7 = getelementptr inbounds nuw %"struct.std::_Vector_base<casadi::MX, std::allocator<casadi::MX>>::_Vector_impl_data", ptr %6, i32 0, i32 0
  %8 = load ptr, ptr %7, align 8, !tbaa !59
  %9 = load i64, ptr %4, align 8, !tbaa !42
  %10 = getelementptr inbounds nuw %"class.casadi::MX", ptr %8, i64 %9
  ret ptr %10
}

; Function Attrs: mustprogress uwtable
define void @_ZNK6casadi10HorzRepmat7eval_mxERKSt6vectorINS_2MXESaIS2_EERS4_(ptr noundef nonnull align 8 dereferenceable(72) %0, ptr noundef nonnull align 8 dereferenceable(24) %1, ptr noundef nonnull align 8 dereferenceable(24) %2) unnamed_addr #4 align 2 personality ptr @__gxx_personality_v0 {
  %4 = alloca ptr, align 8
  %5 = alloca ptr, align 8
  %6 = alloca ptr, align 8
  %7 = alloca %"class.casadi::MX", align 8
  %8 = alloca ptr, align 8
  %9 = alloca i32, align 4
  store ptr %0, ptr %4, align 8, !tbaa !3
  store ptr %1, ptr %5, align 8, !tbaa !57
  store ptr %2, ptr %6, align 8, !tbaa !57
  %10 = load ptr, ptr %4, align 8
  call void @llvm.lifetime.start.p0(i64 8, ptr %7) #3
  %11 = load ptr, ptr %5, align 8, !tbaa !57
  %12 = call noundef nonnull align 8 dereferenceable(8) ptr @_ZNKSt6vectorIN6casadi2MXESaIS1_EEixEm(ptr noundef nonnull align 8 dereferenceable(24) %11, i64 noundef 0) #3
  %13 = call noundef ptr @_ZNK6casadi2MXptEv(ptr noundef nonnull align 8 dereferenceable(8) %12)
  %14 = getelementptr inbounds nuw %"class.casadi::HorzRepmat", ptr %10, i32 0, i32 1
  %15 = load i64, ptr %14, align 8, !tbaa !14
  %16 = load ptr, ptr %13, align 8, !tbaa !12
  %17 = getelementptr inbounds ptr, ptr %16, i64 63
  %18 = load ptr, ptr %17, align 8
  call void %18(ptr dead_on_unwind writable sret(%"class.casadi::MX") align 8 %7, ptr noundef nonnull align 8 dereferenceable(64) %13, i64 noundef 1, i64 noundef %15)
  %19 = load ptr, ptr %6, align 8, !tbaa !57
  %20 = call noundef nonnull align 8 dereferenceable(8) ptr @_ZNSt6vectorIN6casadi2MXESaIS1_EEixEm(ptr noundef nonnull align 8 dereferenceable(24) %19, i64 noundef 0) #3
  %21 = invoke noundef nonnull align 8 dereferenceable(8) ptr @_ZN6casadi2MXaSERKS0_(ptr noundef nonnull align 8 dereferenceable(8) %20, ptr noundef nonnull align 8 dereferenceable(8) %7)
          to label %22 unwind label %23

22:                                               ; preds = %3
  call void @_ZN6casadi2MXD1Ev(ptr noundef nonnull align 8 dereferenceable(8) %7) #3
  call void @llvm.lifetime.end.p0(i64 8, ptr %7) #3
  ret void

23:                                               ; preds = %3
  %24 = landingpad { ptr, i32 }
          cleanup
  %25 = extractvalue { ptr, i32 } %24, 0
  store ptr %25, ptr %8, align 8
  %26 = extractvalue { ptr, i32 } %24, 1
  store i32 %26, ptr %9, align 4
  call void @_ZN6casadi2MXD1Ev(ptr noundef nonnull align 8 dereferenceable(8) %7) #3
  call void @llvm.lifetime.end.p0(i64 8, ptr %7) #3
  br label %27

27:                                               ; preds = %23
  %28 = load ptr, ptr %8, align 8
  %29 = load i32, ptr %9, align 4
  %30 = insertvalue { ptr, i32 } poison, ptr %28, 0
  %31 = insertvalue { ptr, i32 } %30, i32 %29, 1
  resume { ptr, i32 } %31
}